target datalayout = "e-m:e-p270:32:32-p271:32:32-p272:64:64-i64:64-i128:128-f80:128-n8:16:32:64-S128"
target triple = "x86_64-pc-linux-gnu"

@sdp_transport_reqs = internal global ptr null, align 8

; Function Attrs: null_pointer_is_valid sspstrong uwtable
define hidden void @setup_sdp_transport_resend(i32 noundef %0, i32 noundef %1) #0 {
  %3 = alloca i32, align 4
  %4 = alloca i32, align 4
  %5 = alloca ptr, align 8
  store i32 %0, ptr %3, align 4
  store i32 %1, ptr %4, align 4
  call void @llvm.lifetime.start.p0(i64 8, ptr %5) #15
  store ptr null, ptr %5, align 8
  %6 = load i32, ptr %4, align 4
  %7 = icmp ne i32 %6, 0
  br i1 %7, label %8, label %19

8:                                                ; preds = %2
  %9 = load ptr, ptr @sdp_transport_reqs, align 8
  %10 = load i32, ptr %4, align 4
  %11 = call ptr @wmem_tree_lookup32(ptr noundef %9, i32 noundef %10)
  store ptr %11, ptr %5, align 8
  %12 = load ptr, ptr %5, align 8
  %13 = icmp ne ptr %12, null
  br i1 %13, label %14, label %18

14:                                               ; preds = %8
  %15 = load ptr, ptr @sdp_transport_reqs, align 8
  %16 = load i32, ptr %3, align 4
  %17 = load ptr, ptr %5, align 8
  call void @wmem_tree_insert32(ptr noundef %15, i32 noundef %16, ptr noundef %17)
  br label %18

18:                                               ; preds = %14, %8
  br label %19

19:                                               ; preds = %18, %2
  call void @llvm.lifetime.end.p0(i64 8, ptr %5) #15
  ret void
}