; Function Attrs: null_pointer_is_valid sspstrong uwtable
define hidden void @setup_sdp_transport_resend(i32 noundef %0, i32 noundef %1) local_unnamed_addr #0 {
  %.not = icmp eq i32 %1, 0
  br i1 %.not, label %8, label %3

3:                                                ; preds = %2
  %4 = load ptr, ptr @sdp_transport_reqs, align 8
  %5 = tail call ptr @wmem_tree_lookup32(ptr noundef %4, i32 noundef %1)
  %.not5 = icmp eq ptr %5, null
  br i1 %.not5, label %8, label %6

6:                                                ; preds = %3
  %7 = load ptr, ptr @sdp_transport_reqs, align 8
  tail call void @wmem_tree_insert32(ptr noundef %7, i32 noundef %0, ptr noundef nonnull %5)
  br label %8

8:                                                ; preds = %3, %6, %2
  ret void
}